; Function Attrs: mustprogress nofree norecurse nosync nounwind willreturn memory(argmem: write) uwtable
define range(i32 -173, 1) i32 @wc_InitSha512_224(ptr noundef writeonly captures(address_is_null) %0) local_unnamed_addr #0 {
  %2 = icmp eq ptr %0, null
  br i1 %2, label %wc_InitSha512_224_ex.exit, label %InitSha512_224.exit.i

InitSha512_224.exit.i:                            ; preds = %1
  %3 = getelementptr inbounds nuw i8, ptr %0, i64 216
  store ptr null, ptr %3, align 8, !tbaa !3
  store i64 -8341449602262348382, ptr %0, align 8, !tbaa !10
  %4 = getelementptr inbounds nuw i8, ptr %0, i64 8
  store i64 8350123849800275158, ptr %4, align 8, !tbaa !10
  %5 = getelementptr inbounds nuw i8, ptr %0, i64 16
  store i64 2160240930085379202, ptr %5, align 8, !tbaa !10
  %6 = getelementptr inbounds nuw i8, ptr %0, i64 24
  store i64 7466358040605728719, ptr %6, align 8, !tbaa !10
  %7 = getelementptr inbounds nuw i8, ptr %0, i64 32
  store i64 1111592415079452072, ptr %7, align 8, !tbaa !10
  %8 = getelementptr inbounds nuw i8, ptr %0, i64 40
  store i64 8638871050018654530, ptr %8, align 8, !tbaa !10
  %9 = getelementptr inbounds nuw i8, ptr %0, i64 48
  store i64 4583966954114332360, ptr %9, align 8, !tbaa !10
  %10 = getelementptr inbounds nuw i8, ptr %0, i64 56
  store i64 1230299281376055969, ptr %10, align 8, !tbaa !10
  %11 = getelementptr inbounds nuw i8, ptr %0, i64 192
  store i32 0, ptr %11, align 8, !tbaa !11
  %12 = getelementptr inbounds nuw i8, ptr %0, i64 200
  tail call void @llvm.memset.p0.i64(ptr noundef nonnull align 8 dereferenceable(16) %12, i8 0, i64 16, i1 false)
  br label %wc_InitSha512_224_ex.exit

wc_InitSha512_224_ex.exit:                        ; preds = %1, %InitSha512_224.exit.i
  %.0.i.i = phi i32 [ -173, %1 ], [ 0, %InitSha512_224.exit.i ]
  ret i32 %.0.i.i
}